target datalayout = "e-m:e-p270:32:32-p271:32:32-p272:64:64-i64:64-i128:128-f80:128-n8:16:32:64-S128"
target triple = "x86_64-pc-linux-gnu"

%struct._zend_executor_globals = type { %struct._zval_struct, %struct._zval_struct, [32 x ptr], ptr, ptr, %struct._zend_array, %struct._zend_array, ptr, i32, i32, ptr, ptr, ptr, ptr, ptr, ptr, i64, ptr, ptr, i32, i32, i64, i32, i32, i32, i8, i8, %struct.zend_atomic_bool_s, %struct.zend_atomic_bool_s, ptr, i64, ptr, ptr, %struct._zend_array, %struct._zend_array, i32, i8, %struct._zval_struct, %struct._zval_struct, %struct._zend_stack, %struct._zend_stack, %struct._zend_stack, ptr, i32, i32, i64, ptr, ptr, ptr, %struct._zend_objects_store, ptr, ptr, ptr, [3 x %struct._zend_op], ptr, i8, i8, i64, i32, i32, ptr, [16 x %struct._HashTableIterator], ptr, %union._zend_function, %struct._zend_op, %struct._zend_array, i64, %struct.zend_get_gc_buffer, ptr, ptr, ptr, i64, i8, i32, ptr, ptr, i64, %struct._zend_call_stack, i64, i64, [6 x ptr] }
%struct.zend_atomic_bool_s = type { i8 }
%struct._zval_struct = type { %union._zend_value, %union.anon, %union.anon.2 }
%union._zend_value = type { i64 }
%union.anon = type { i32 }
%union.anon.2 = type { i32 }
%struct._zend_stack = type { i32, i32, i32, ptr }
%struct._zend_objects_store = type { ptr, i32, i32, i32 }
%struct._HashTableIterator = type { ptr, i32, i32 }
%union._zend_function = type { %struct._zend_op_array }
%struct._zend_op_array = type { i8, [3 x i8], i32, ptr, ptr, ptr, i32, i32, ptr, ptr, ptr, ptr, i32, i32, i32, i32, ptr, ptr, ptr, ptr, ptr, i32, i32, ptr, ptr, ptr, i32, i32, i32, i32, ptr, ptr, [6 x ptr] }
%struct._zend_op = type { ptr, %union._znode_op, %union._znode_op, %union._znode_op, i32, i32, i8, i8, i8, i8 }
%union._znode_op = type { i32 }
%struct._zend_array = type { %struct._zend_refcounted_h, %union.anon.4, i32, %union.anon.6, i32, i32, i32, i32, i64, ptr }
%struct._zend_refcounted_h = type { i32, %union.anon.3 }
%union.anon.3 = type { i32 }
%union.anon.4 = type { i32 }
%union.anon.6 = type { ptr }
%struct.zend_get_gc_buffer = type { ptr, ptr, ptr }
%struct._zend_call_stack = type { ptr, i64 }
%struct._zend_execute_data = type { ptr, ptr, ptr, ptr, %struct._zval_struct, ptr, ptr, ptr, ptr }
%struct.php_sxe_object = type { ptr, ptr, ptr, ptr, %struct.anon.8, %struct._zval_struct, ptr, %struct._zend_object }
%struct.anon.8 = type { ptr, ptr, i32, i32, %struct._zval_struct }
%struct._zend_object = type { %struct._zend_refcounted_h, i32, ptr, ptr, ptr, [1 x %struct._zval_struct] }
%struct._php_libxml_node_object = type { ptr, ptr, %struct._zend_object }

@executor_globals = external global %struct._zend_executor_globals, align 8
@.str.19 = private unnamed_addr constant [12 x i8] c"is too long\00", align 1
@.str.20 = private unnamed_addr constant [7 x i8] c"s|lbsb\00", align 1
@zend_ce_exception = external global ptr, align 8
@.str.21 = private unnamed_addr constant [11 x i8] c"is invalid\00", align 1
@.str.22 = private unnamed_addr constant [34 x i8] c"String could not be parsed as XML\00", align 1

; Function Attrs: nounwind uwtable
define internal ptr @php_sxe_fetch_object(ptr noundef %0) #0 {
  %2 = alloca ptr, align 8
  store ptr %0, ptr %2, align 8
  %3 = load ptr, ptr %2, align 8
  %4 = getelementptr inbounds i8, ptr %3, i64 -96
  ret ptr %4
}

; Function Attrs: nounwind uwtable
define hidden void @zim_SimpleXMLElement___construct(ptr noundef %0, ptr noundef %1) #0 {
  %3 = alloca ptr, align 8
  %4 = alloca ptr, align 8
  %5 = alloca ptr, align 8
  %6 = alloca ptr, align 8
  %7 = alloca ptr, align 8
  %8 = alloca i64, align 8
  %9 = alloca i64, align 8
  %10 = alloca ptr, align 8
  %11 = alloca i64, align 8
  %12 = alloca i8, align 1
  %13 = alloca i8, align 1
  %14 = alloca i32, align 4
  %15 = alloca i32, align 4
  %16 = alloca i32, align 4
  %17 = alloca i32, align 4
  %18 = alloca i32, align 4
  %19 = alloca i32, align 4
  store ptr %0, ptr %3, align 8
  store ptr %1, ptr %4, align 8
  %20 = load ptr, ptr %3, align 8
  %21 = getelementptr inbounds %struct._zend_execute_data, ptr %20, i32 0, i32 4
  %22 = getelementptr inbounds %struct._zval_struct, ptr %21, i32 0, i32 0
  %23 = load ptr, ptr %22, align 8
  %24 = call ptr @php_sxe_fetch_object(ptr noundef %23)
  store ptr %24, ptr %5, align 8
  store ptr null, ptr %7, align 8
  store i64 0, ptr %9, align 8
  store i64 0, ptr %11, align 8
  store i8 0, ptr %12, align 1
  store i8 0, ptr %13, align 1
  %25 = load ptr, ptr %3, align 8
  %26 = getelementptr inbounds %struct._zend_execute_data, ptr %25, i32 0, i32 4
  %27 = getelementptr inbounds %struct._zval_struct, ptr %26, i32 0, i32 2
  %28 = load i32, ptr %27, align 4
  %29 = call i32 (i32, ptr, ...) @zend_parse_parameters(i32 noundef %28, ptr noundef @.str.20, ptr noundef %6, ptr noundef %8, ptr noundef %11, ptr noundef %12, ptr noundef %7, ptr noundef %9, ptr noundef %13)
  %30 = icmp eq i32 %29, -1
  br i1 %30, label %31, label %36

31:                                               ; preds = %2
  br label %32

32:                                               ; preds = %31
  %33 = load ptr, ptr getelementptr inbounds (%struct._zend_executor_globals, ptr @executor_globals, i32 0, i32 50), align 8
  %34 = icmp ne ptr %33, null
  call void @llvm.assume(i1 %34)
  br label %168

35:                                               ; No predecessors!
  br label %36

36:                                               ; preds = %35, %2
  %37 = load i64, ptr %8, align 8
  %38 = icmp ugt i64 %37, 2147483647
  %39 = xor i1 %38, true
  %40 = xor i1 %39, true
  %41 = zext i1 %40 to i32
  %42 = sext i32 %41 to i64
  %43 = icmp ne i64 %42, 0
  br i1 %43, label %44, label %50

44:                                               ; preds = %36
  %45 = load ptr, ptr @zend_ce_exception, align 8
  call void (ptr, i32, ptr, ...) @zend_argument_error(ptr noundef %45, i32 noundef 1, ptr noundef @.str.19)
  br label %46

46:                                               ; preds = %44
  %47 = load ptr, ptr getelementptr inbounds (%struct._zend_executor_globals, ptr @executor_globals, i32 0, i32 50), align 8
  %48 = icmp ne ptr %47, null
  call void @llvm.assume(i1 %48)
  br label %168

49:                                               ; No predecessors!
  br label %50

50:                                               ; preds = %49, %36
  %51 = load i64, ptr %9, align 8
  %52 = icmp ugt i64 %51, 2147483647
  %53 = xor i1 %52, true
  %54 = xor i1 %53, true
  %55 = zext i1 %54 to i32
  %56 = sext i32 %55 to i64
  %57 = icmp ne i64 %56, 0
  br i1 %57, label %58, label %64

58:                                               ; preds = %50
  %59 = load ptr, ptr @zend_ce_exception, align 8
  call void (ptr, i32, ptr, ...) @zend_argument_error(ptr noundef %59, i32 noundef 4, ptr noundef @.str.19)
  br label %60

60:                                               ; preds = %58
  %61 = load ptr, ptr getelementptr inbounds (%struct._zend_executor_globals, ptr @executor_globals, i32 0, i32 50), align 8
  %62 = icmp ne ptr %61, null
  call void @llvm.assume(i1 %62)
  br label %168

63:                                               ; No predecessors!
  br label %64

64:                                               ; preds = %63, %50
  %65 = load i64, ptr %11, align 8
  %66 = icmp sgt i64 %65, 2147483647
  %67 = xor i1 %66, true
  %68 = xor i1 %67, true
  %69 = zext i1 %68 to i32
  %70 = sext i32 %69 to i64
  %71 = icmp ne i64 %70, 0
  br i1 %71, label %80, label %72

72:                                               ; preds = %64
  %73 = load i64, ptr %11, align 8
  %74 = icmp slt i64 %73, -2147483648
  %75 = xor i1 %74, true
  %76 = xor i1 %75, true
  %77 = zext i1 %76 to i32
  %78 = sext i32 %77 to i64
  %79 = icmp ne i64 %78, 0
  br label %80

80:                                               ; preds = %72, %64
  %81 = phi i1 [ true, %64 ], [ %79, %72 ]
  %82 = xor i1 %81, true
  %83 = xor i1 %82, true
  %84 = zext i1 %83 to i32
  %85 = sext i32 %84 to i64
  %86 = icmp ne i64 %85, 0
  br i1 %86, label %87, label %93

87:                                               ; preds = %80
  %88 = load ptr, ptr @zend_ce_exception, align 8
  call void (ptr, i32, ptr, ...) @zend_argument_error(ptr noundef %88, i32 noundef 2, ptr noundef @.str.21)
  br label %89

89:                                               ; preds = %87
  %90 = load ptr, ptr getelementptr inbounds (%struct._zend_executor_globals, ptr @executor_globals, i32 0, i32 50), align 8
  %91 = icmp ne ptr %90, null
  call void @llvm.assume(i1 %91)
  br label %168

92:                                               ; No predecessors!
  br label %93

93:                                               ; preds = %92, %80
  %94 = call ptr @__xmlLoadExtDtdDefaultValue()
  %95 = load i32, ptr %94, align 4
  store i32 %95, ptr %14, align 4
  %96 = call ptr @__xmlLoadExtDtdDefaultValue()
  store i32 0, ptr %96, align 4
  %97 = call ptr @__xmlDoValidityCheckingDefaultValue()
  %98 = load i32, ptr %97, align 4
  store i32 %98, ptr %15, align 4
  %99 = call ptr @__xmlDoValidityCheckingDefaultValue()
  store i32 0, ptr %99, align 4
  %100 = call i32 @xmlPedanticParserDefault(i32 noundef 0)
  store i32 %100, ptr %16, align 4
  %101 = call i32 @xmlSubstituteEntitiesDefault(i32 noundef 0)
  store i32 %101, ptr %17, align 4
  %102 = call i32 @xmlLineNumbersDefault(i32 noundef 0)
  store i32 %102, ptr %18, align 4
  %103 = call i32 @xmlKeepBlanksDefault(i32 noundef 1)
  store i32 %103, ptr %19, align 4
  %104 = load i8, ptr %12, align 1
  %105 = trunc i8 %104 to i1
  br i1 %105, label %106, label %111

106:                                              ; preds = %93
  %107 = load ptr, ptr %6, align 8
  %108 = load i64, ptr %11, align 8
  %109 = trunc i64 %108 to i32
  %110 = call ptr @xmlReadFile(ptr noundef %107, ptr noundef null, i32 noundef %109)
  br label %118

111:                                              ; preds = %93
  %112 = load ptr, ptr %6, align 8
  %113 = load i64, ptr %8, align 8
  %114 = trunc i64 %113 to i32
  %115 = load i64, ptr %11, align 8
  %116 = trunc i64 %115 to i32
  %117 = call ptr @xmlReadMemory(ptr noundef %112, i32 noundef %114, ptr noundef null, ptr noundef null, i32 noundef %116)
  br label %118

118:                                              ; preds = %111, %106
  %119 = phi ptr [ %110, %106 ], [ %117, %111 ]
  store ptr %119, ptr %10, align 8
  %120 = load i32, ptr %14, align 4
  %121 = call ptr @__xmlLoadExtDtdDefaultValue()
  store i32 %120, ptr %121, align 4
  %122 = load i32, ptr %15, align 4
  %123 = call ptr @__xmlDoValidityCheckingDefaultValue()
  store i32 %122, ptr %123, align 4
  %124 = load i32, ptr %16, align 4
  %125 = call i32 @xmlPedanticParserDefault(i32 noundef %124)
  %126 = load i32, ptr %17, align 4
  %127 = call i32 @xmlSubstituteEntitiesDefault(i32 noundef %126)
  %128 = load i32, ptr %18, align 4
  %129 = call i32 @xmlLineNumbersDefault(i32 noundef %128)
  %130 = load i32, ptr %19, align 4
  %131 = call i32 @xmlKeepBlanksDefault(i32 noundef %130)
  %132 = load ptr, ptr %10, align 8
  %133 = icmp ne ptr %132, null
  br i1 %133, label %143, label %134

134:                                              ; preds = %118
  %135 = load ptr, ptr %5, align 8
  %136 = getelementptr inbounds %struct._php_libxml_node_object, ptr %135, i32 0, i32 1
  store ptr null, ptr %136, align 8
  %137 = load ptr, ptr @zend_ce_exception, align 8
  %138 = call ptr @zend_throw_exception(ptr noundef %137, ptr noundef @.str.22, i64 noundef 0)
  br label %139

139:                                              ; preds = %134
  %140 = load ptr, ptr getelementptr inbounds (%struct._zend_executor_globals, ptr @executor_globals, i32 0, i32 50), align 8
  %141 = icmp ne ptr %140, null
  call void @llvm.assume(i1 %141)
  br label %168

142:                                              ; No predecessors!
  br label %143

143:                                              ; preds = %142, %118
  %144 = load i64, ptr %9, align 8
  %145 = icmp ne i64 %144, 0
  br i1 %145, label %146, label %149

146:                                              ; preds = %143
  %147 = load ptr, ptr %7, align 8
  %148 = call noalias ptr @_estrdup(ptr noundef %147)
  br label %150

149:                                              ; preds = %143
  br label %150

150:                                              ; preds = %149, %146
  %151 = phi ptr [ %148, %146 ], [ null, %149 ]
  %152 = load ptr, ptr %5, align 8
  %153 = getelementptr inbounds %struct.php_sxe_object, ptr %152, i32 0, i32 4
  %154 = getelementptr inbounds %struct.anon.8, ptr %153, i32 0, i32 1
  store ptr %151, ptr %154, align 8
  %155 = load i8, ptr %13, align 1
  %156 = trunc i8 %155 to i1
  %157 = zext i1 %156 to i32
  %158 = load ptr, ptr %5, align 8
  %159 = getelementptr inbounds %struct.php_sxe_object, ptr %158, i32 0, i32 4
  %160 = getelementptr inbounds %struct.anon.8, ptr %159, i32 0, i32 2
  store i32 %157, ptr %160, align 8
  %161 = load ptr, ptr %5, align 8
  %162 = load ptr, ptr %10, align 8
  %163 = call i32 @php_libxml_increment_doc_ref(ptr noundef %161, ptr noundef %162)
  %164 = load ptr, ptr %5, align 8
  %165 = load ptr, ptr %10, align 8
  %166 = call ptr @xmlDocGetRootElement(ptr noundef %165)
  %167 = call i32 @php_libxml_increment_node_ptr(ptr noundef %164, ptr noundef %166, ptr noundef null)
  br label %168

168:                                              ; preds = %150, %139, %89, %60, %46, %32
  ret void
}