; Function Attrs: nounwind uwtable
define hidden void @zim_SimpleXMLElement___construct(ptr nocapture noundef readonly %0, ptr nocapture readnone %1) #1 {
  %3 = alloca ptr, align 8
  %4 = alloca ptr, align 8
  %5 = alloca i64, align 8
  %6 = alloca i64, align 8
  %7 = alloca i64, align 8
  %8 = alloca i8, align 1
  %9 = alloca i8, align 1
  %10 = getelementptr inbounds i8, ptr %0, i64 32
  %11 = load ptr, ptr %10, align 8
  %12 = getelementptr inbounds i8, ptr %11, i64 -96
  store ptr null, ptr %4, align 8
  store i64 0, ptr %6, align 8
  store i64 0, ptr %7, align 8
  store i8 0, ptr %8, align 1
  store i8 0, ptr %9, align 1
  %13 = getelementptr inbounds i8, ptr %0, i64 44
  %14 = load i32, ptr %13, align 4
  %15 = call i32 (i32, ptr, ...) @zend_parse_parameters(i32 noundef %14, ptr noundef nonnull @.str.20, ptr noundef nonnull %3, ptr noundef nonnull %5, ptr noundef nonnull %7, ptr noundef nonnull %8, ptr noundef nonnull %4, ptr noundef nonnull %6, ptr noundef nonnull %9) #14
  %16 = icmp eq i32 %15, -1
  br i1 %16, label %17, label %20

17:                                               ; preds = %2
  %18 = load ptr, ptr getelementptr inbounds (%struct._zend_executor_globals, ptr @executor_globals, i64 0, i32 50), align 8
  %19 = icmp ne ptr %18, null
  call void @llvm.assume(i1 %19)
  br label %94

20:                                               ; preds = %2
  %21 = load i64, ptr %5, align 8
  %22 = icmp ugt i64 %21, 2147483647
  br i1 %22, label %23, label %27

23:                                               ; preds = %20
  %24 = load ptr, ptr @zend_ce_exception, align 8
  call void (ptr, i32, ptr, ...) @zend_argument_error(ptr noundef %24, i32 noundef 1, ptr noundef nonnull @.str.19) #14
  %25 = load ptr, ptr getelementptr inbounds (%struct._zend_executor_globals, ptr @executor_globals, i64 0, i32 50), align 8
  %26 = icmp ne ptr %25, null
  call void @llvm.assume(i1 %26)
  br label %94

27:                                               ; preds = %20
  %28 = load i64, ptr %6, align 8
  %29 = icmp ugt i64 %28, 2147483647
  br i1 %29, label %30, label %34

30:                                               ; preds = %27
  %31 = load ptr, ptr @zend_ce_exception, align 8
  call void (ptr, i32, ptr, ...) @zend_argument_error(ptr noundef %31, i32 noundef 4, ptr noundef nonnull @.str.19) #14
  %32 = load ptr, ptr getelementptr inbounds (%struct._zend_executor_globals, ptr @executor_globals, i64 0, i32 50), align 8
  %33 = icmp ne ptr %32, null
  call void @llvm.assume(i1 %33)
  br label %94

34:                                               ; preds = %27
  %35 = load i64, ptr %7, align 8
  %36 = add i64 %35, -2147483648
  %spec.select = icmp ult i64 %36, -4294967296
  br i1 %spec.select, label %37, label %41

37:                                               ; preds = %34
  %38 = load ptr, ptr @zend_ce_exception, align 8
  call void (ptr, i32, ptr, ...) @zend_argument_error(ptr noundef %38, i32 noundef 2, ptr noundef nonnull @.str.21) #14
  %39 = load ptr, ptr getelementptr inbounds (%struct._zend_executor_globals, ptr @executor_globals, i64 0, i32 50), align 8
  %40 = icmp ne ptr %39, null
  call void @llvm.assume(i1 %40)
  br label %94

41:                                               ; preds = %34
  %42 = call ptr @__xmlLoadExtDtdDefaultValue() #14
  %43 = load i32, ptr %42, align 4
  %44 = call ptr @__xmlLoadExtDtdDefaultValue() #14
  store i32 0, ptr %44, align 4
  %45 = call ptr @__xmlDoValidityCheckingDefaultValue() #14
  %46 = load i32, ptr %45, align 4
  %47 = call ptr @__xmlDoValidityCheckingDefaultValue() #14
  store i32 0, ptr %47, align 4
  %48 = call i32 @xmlPedanticParserDefault(i32 noundef 0) #14
  %49 = call i32 @xmlSubstituteEntitiesDefault(i32 noundef 0) #14
  %50 = call i32 @xmlLineNumbersDefault(i32 noundef 0) #14
  %51 = call i32 @xmlKeepBlanksDefault(i32 noundef 1) #14
  %52 = load i8, ptr %8, align 1
  %53 = and i8 %52, 1
  %.not = icmp eq i8 %53, 0
  %54 = load ptr, ptr %3, align 8
  br i1 %.not, label %59, label %55

55:                                               ; preds = %41
  %56 = load i64, ptr %7, align 8
  %57 = trunc i64 %56 to i32
  %58 = call ptr @xmlReadFile(ptr noundef %54, ptr noundef null, i32 noundef %57) #14
  br label %65

59:                                               ; preds = %41
  %60 = load i64, ptr %5, align 8
  %61 = trunc i64 %60 to i32
  %62 = load i64, ptr %7, align 8
  %63 = trunc i64 %62 to i32
  %64 = call ptr @xmlReadMemory(ptr noundef %54, i32 noundef %61, ptr noundef null, ptr noundef null, i32 noundef %63) #14
  br label %65

65:                                               ; preds = %59, %55
  %66 = phi ptr [ %58, %55 ], [ %64, %59 ]
  %67 = call ptr @__xmlLoadExtDtdDefaultValue() #14
  store i32 %43, ptr %67, align 4
  %68 = call ptr @__xmlDoValidityCheckingDefaultValue() #14
  store i32 %46, ptr %68, align 4
  %69 = call i32 @xmlPedanticParserDefault(i32 noundef %48) #14
  %70 = call i32 @xmlSubstituteEntitiesDefault(i32 noundef %49) #14
  %71 = call i32 @xmlLineNumbersDefault(i32 noundef %50) #14
  %72 = call i32 @xmlKeepBlanksDefault(i32 noundef %51) #14
  %.not16 = icmp eq ptr %66, null
  br i1 %.not16, label %73, label %79

73:                                               ; preds = %65
  %74 = getelementptr inbounds i8, ptr %11, i64 -88
  store ptr null, ptr %74, align 8
  %75 = load ptr, ptr @zend_ce_exception, align 8
  %76 = call ptr @zend_throw_exception(ptr noundef %75, ptr noundef nonnull @.str.22, i64 noundef 0) #14
  %77 = load ptr, ptr getelementptr inbounds (%struct._zend_executor_globals, ptr @executor_globals, i64 0, i32 50), align 8
  %78 = icmp ne ptr %77, null
  call void @llvm.assume(i1 %78)
  br label %94

79:                                               ; preds = %65
  %80 = load i64, ptr %6, align 8
  %.not17 = icmp eq i64 %80, 0
  br i1 %.not17, label %84, label %81

81:                                               ; preds = %79
  %82 = load ptr, ptr %4, align 8
  %83 = call noalias ptr @_estrdup(ptr noundef %82) #14
  br label %84

84:                                               ; preds = %79, %81
  %85 = phi ptr [ %83, %81 ], [ null, %79 ]
  %86 = getelementptr inbounds i8, ptr %11, i64 -56
  store ptr %85, ptr %86, align 8
  %87 = load i8, ptr %9, align 1
  %88 = and i8 %87, 1
  %89 = zext nneg i8 %88 to i32
  %90 = getelementptr inbounds i8, ptr %11, i64 -48
  store i32 %89, ptr %90, align 8
  %91 = call i32 @php_libxml_increment_doc_ref(ptr noundef nonnull %12, ptr noundef nonnull %66) #14
  %92 = call ptr @xmlDocGetRootElement(ptr noundef nonnull %66) #14
  %93 = call i32 @php_libxml_increment_node_ptr(ptr noundef nonnull %12, ptr noundef %92, ptr noundef null) #14
  br label %94

94:                                               ; preds = %84, %73, %37, %30, %23, %17
  ret void
}